target datalayout = "e-m:e-p270:32:32-p271:32:32-p272:64:64-i64:64-i128:128-f80:128-n8:16:32:64-S128"
target triple = "x86_64-pc-linux-gnu"

%struct.__va_list_tag = type { i32, i32, ptr, ptr }

@stderr = external global ptr, align 8
@warnings = internal global i8 0, align 1
@filename = internal global ptr null, align 8
@.str.31 = private unnamed_addr constant [16 x i8] c"\22%s\22, line %d: \00", align 1
@linenum = internal global i32 0, align 4
@rfilename = internal global ptr null, align 8
@.str.32 = private unnamed_addr constant [27 x i8] c" (rule from \22%s\22, line %d)\00", align 1
@rlinenum = internal global i32 0, align 4
@.str.33 = private unnamed_addr constant [2 x i8] c"\0A\00", align 1
@.str.34 = private unnamed_addr constant [10 x i8] c"warning: \00", align 1

; Function Attrs: nounwind uwtable
define internal void @verror(ptr noundef %0, ptr noundef %1) #0 {
  %3 = alloca ptr, align 8
  %4 = alloca ptr, align 8
  store ptr %0, ptr %3, align 8
  store ptr %1, ptr %4, align 8
  %5 = load ptr, ptr @filename, align 8
  %6 = icmp ne ptr %5, null
  br i1 %6, label %7, label %12

7:                                                ; preds = %2
  %8 = load ptr, ptr @stderr, align 8
  %9 = load ptr, ptr @filename, align 8
  %10 = load i32, ptr @linenum, align 4
  %11 = call i32 (ptr, ptr, ...) @pg_fprintf(ptr noundef %8, ptr noundef @.str.31, ptr noundef %9, i32 noundef %10)
  br label %12

12:                                               ; preds = %7, %2
  %13 = load ptr, ptr @stderr, align 8
  %14 = load ptr, ptr %3, align 8
  %15 = load ptr, ptr %4, align 8
  %16 = call i32 @pg_vfprintf(ptr noundef %13, ptr noundef %14, ptr noundef %15)
  %17 = load ptr, ptr @rfilename, align 8
  %18 = icmp ne ptr %17, null
  br i1 %18, label %19, label %24

19:                                               ; preds = %12
  %20 = load ptr, ptr @stderr, align 8
  %21 = load ptr, ptr @rfilename, align 8
  %22 = load i32, ptr @rlinenum, align 4
  %23 = call i32 (ptr, ptr, ...) @pg_fprintf(ptr noundef %20, ptr noundef @.str.32, ptr noundef %21, i32 noundef %22)
  br label %24

24:                                               ; preds = %19, %12
  %25 = load ptr, ptr @stderr, align 8
  %26 = call i32 (ptr, ptr, ...) @pg_fprintf(ptr noundef %25, ptr noundef @.str.33)
  ret void
}

; Function Attrs: nounwind uwtable
define internal void @warning(ptr noundef %0, ...) #0 {
  %2 = alloca ptr, align 8
  %3 = alloca [1 x %struct.__va_list_tag], align 16
  store ptr %0, ptr %2, align 8
  call void @llvm.lifetime.start.p0(i64 24, ptr %3) #13
  %4 = load ptr, ptr @stderr, align 8
  %5 = call i32 (ptr, ptr, ...) @pg_fprintf(ptr noundef %4, ptr noundef @.str.34)
  %6 = getelementptr inbounds [1 x %struct.__va_list_tag], ptr %3, i64 0, i64 0
  call void @llvm.va_start.p0(ptr %6)
  %7 = load ptr, ptr %2, align 8
  %8 = getelementptr inbounds [1 x %struct.__va_list_tag], ptr %3, i64 0, i64 0
  call void @verror(ptr noundef %7, ptr noundef %8)
  %9 = getelementptr inbounds [1 x %struct.__va_list_tag], ptr %3, i64 0, i64 0
  call void @llvm.va_end.p0(ptr %9)
  store i8 1, ptr @warnings, align 1
  call void @llvm.lifetime.end.p0(i64 24, ptr %3) #13
  ret void
}