; Function Attrs: nounwind uwtable
define internal void @warning(ptr noundef %0, ...) unnamed_addr #0 {
  %2 = alloca [1 x %struct.__va_list_tag], align 16
  call void @llvm.lifetime.start.p0(i64 24, ptr nonnull %2) #26
  %3 = load ptr, ptr @stderr, align 8
  %4 = tail call i32 (ptr, ptr, ...) @pg_fprintf(ptr noundef %3, ptr noundef nonnull @.str.34) #26
  call void @llvm.va_start.p0(ptr nonnull %2)
  %5 = load ptr, ptr @filename, align 8
  %.not.i = icmp eq ptr %5, null
  br i1 %.not.i, label %10, label %6

6:                                                ; preds = %1
  %7 = load ptr, ptr @stderr, align 8
  %8 = load i32, ptr @linenum, align 4
  %9 = call i32 (ptr, ptr, ...) @pg_fprintf(ptr noundef %7, ptr noundef nonnull @.str.31, ptr noundef nonnull %5, i32 noundef %8) #26
  br label %10

10:                                               ; preds = %6, %1
  %11 = load ptr, ptr @stderr, align 8
  %12 = call i32 @pg_vfprintf(ptr noundef %11, ptr noundef %0, ptr noundef nonnull %2) #26
  %13 = load ptr, ptr @rfilename, align 8
  %.not3.i = icmp eq ptr %13, null
  br i1 %.not3.i, label %verror.exit, label %14

14:                                               ; preds = %10
  %15 = load ptr, ptr @stderr, align 8
  %16 = load i32, ptr @rlinenum, align 4
  %17 = call i32 (ptr, ptr, ...) @pg_fprintf(ptr noundef %15, ptr noundef nonnull @.str.32, ptr noundef nonnull %13, i32 noundef %16) #26
  br label %verror.exit

verror.exit:                                      ; preds = %10, %14
  %18 = load ptr, ptr @stderr, align 8
  %19 = call i32 (ptr, ptr, ...) @pg_fprintf(ptr noundef %18, ptr noundef nonnull @.str.33) #26
  call void @llvm.va_end.p0(ptr nonnull %2)
  store i1 true, ptr @warnings, align 1
  call void @llvm.lifetime.end.p0(i64 24, ptr nonnull %2) #26
  ret void
}